; Function Attrs: nounwind uwtable
define i32 @Kit_GraphToGia(ptr noundef %0, ptr noundef readonly captures(none) %1, ptr noundef readonly %2, i32 noundef %3) local_unnamed_addr #0 {
  %5 = getelementptr inbounds nuw i8, ptr %1, i64 4
  %6 = load i32, ptr %5, align 4
  %7 = icmp sgt i32 %6, 0
  br i1 %7, label %.lr.ph, label %.critedge

.lr.ph:                                           ; preds = %4
  %8 = getelementptr i8, ptr %1, i64 16
  %.not = icmp eq ptr %2, null
  %9 = getelementptr i8, ptr %2, i64 8
  %10 = getelementptr i8, ptr %0, i64 32
  %11 = getelementptr i8, ptr %0, i64 64
  br i1 %.not, label %.lr.ph.split.us, label %.lr.ph.split

.lr.ph.split.us:                                  ; preds = %.lr.ph, %.lr.ph.split.us
  %indvars.iv22 = phi i64 [ %indvars.iv.next23, %.lr.ph.split.us ], [ 0, %.lr.ph ]
  %.val.us = load ptr, ptr %8, align 8
  %.val16.us = load ptr, ptr %10, align 8
  %.val17.us = load ptr, ptr %11, align 8
  %12 = getelementptr i8, ptr %.val17.us, i64 8
  %.val17.val.us = load ptr, ptr %12, align 8
  %13 = getelementptr inbounds nuw i32, ptr %.val17.val.us, i64 %indvars.iv22
  %14 = load i32, ptr %13, align 4
  %15 = sext i32 %14 to i64
  %16 = getelementptr inbounds %struct.Gia_Obj_t_, ptr %.val16.us, i64 %15
  %17 = ptrtoint ptr %16 to i64
  %18 = and i64 %17, -2
  %19 = ptrtoint ptr %.val16.us to i64
  %20 = sub i64 %18, %19
  %21 = sdiv exact i64 %20, 12
  %22 = trunc i64 %21 to i32
  %23 = trunc i64 %17 to i32
  %24 = and i32 %23, 1
  %25 = shl nsw i32 %22, 1
  %26 = or disjoint i32 %25, %24
  %27 = getelementptr inbounds nuw %struct.Kit_Node_t_, ptr %.val.us, i64 %indvars.iv22, i32 2
  store i32 %26, ptr %27, align 8
  %indvars.iv.next23 = add nuw nsw i64 %indvars.iv22, 1
  %28 = load i32, ptr %5, align 4
  %29 = sext i32 %28 to i64
  %30 = icmp slt i64 %indvars.iv.next23, %29
  br i1 %30, label %.lr.ph.split.us, label %.critedge, !llvm.loop !6

.lr.ph.split:                                     ; preds = %.lr.ph, %.lr.ph.split
  %indvars.iv = phi i64 [ %indvars.iv.next, %.lr.ph.split ], [ 0, %.lr.ph ]
  %.val = load ptr, ptr %8, align 8
  %.val15 = load ptr, ptr %9, align 8
  %31 = getelementptr inbounds nuw i32, ptr %.val15, i64 %indvars.iv
  %32 = load i32, ptr %31, align 4
  %33 = getelementptr inbounds nuw %struct.Kit_Node_t_, ptr %.val, i64 %indvars.iv, i32 2
  store i32 %32, ptr %33, align 8
  %indvars.iv.next = add nuw nsw i64 %indvars.iv, 1
  %34 = load i32, ptr %5, align 4
  %35 = sext i32 %34 to i64
  %36 = icmp slt i64 %indvars.iv.next, %35
  br i1 %36, label %.lr.ph.split, label %.critedge, !llvm.loop !6

.critedge:                                        ; preds = %.lr.ph.split, %.lr.ph.split.us, %4
  %37 = tail call i32 @Kit_GraphToGiaInternal(ptr noundef %0, ptr noundef nonnull %1, i32 noundef %3)
  ret i32 %37
}